target datalayout = "e-m:e-p270:32:32-p271:32:32-p272:64:64-i64:64-i128:128-f80:128-n8:16:32:64-S128"
target triple = "x86_64-unknown-linux-gnu"

%"class.absl::Condition" = type { [16 x i8], ptr, ptr }

; Function Attrs: mustprogress nounwind uwtable
define internal void @_ZNK4absl9Condition12ReadCallbackIMN12_GLOBAL__N_111DerivedTrueEFbvEEEvPT_(ptr noundef nonnull align 8 dereferenceable(32) %this, ptr noundef %callback) #7 align 2 {
entry:
  %this.addr = alloca ptr, align 8
  %callback.addr = alloca ptr, align 8
  store ptr %this, ptr %this.addr, align 8
  store ptr %callback, ptr %callback.addr, align 8
  %this1 = load ptr, ptr %this.addr, align 8
  %0 = load ptr, ptr %callback.addr, align 8
  %callback_ = getelementptr inbounds %"class.absl::Condition", ptr %this1, i32 0, i32 0
  %arraydecay = getelementptr inbounds [16 x i8], ptr %callback_, i64 0, i64 0
  call void @llvm.memcpy.p0.p0.i64(ptr align 8 %0, ptr align 8 %arraydecay, i64 16, i1 false)
  ret void
}

; Function Attrs: mustprogress uwtable
define internal noundef zeroext i1 @_ZN4absl9Condition17CastAndCallMethodIN12_GLOBAL__N_111DerivedTrueEEEbPKS0_(ptr noundef %c) #4 align 2 {
entry:
  %c.addr = alloca ptr, align 8
  %object = alloca ptr, align 8
  %method_pointer = alloca { i64, i64 }, align 8
  store ptr %c, ptr %c.addr, align 8
  %0 = load ptr, ptr %c.addr, align 8
  %arg_ = getelementptr inbounds %"class.absl::Condition", ptr %0, i32 0, i32 2
  %1 = load ptr, ptr %arg_, align 8
  store ptr %1, ptr %object, align 8
  %2 = load ptr, ptr %c.addr, align 8
  call void @_ZNK4absl9Condition12ReadCallbackIMN12_GLOBAL__N_111DerivedTrueEFbvEEEvPT_(ptr noundef nonnull align 8 dereferenceable(32) %2, ptr noundef %method_pointer)
  %3 = load ptr, ptr %object, align 8
  %4 = load { i64, i64 }, ptr %method_pointer, align 8
  %memptr.adj = extractvalue { i64, i64 } %4, 1
  %5 = getelementptr inbounds i8, ptr %3, i64 %memptr.adj
  %memptr.ptr = extractvalue { i64, i64 } %4, 0
  %6 = and i64 %memptr.ptr, 1
  %memptr.isvirtual = icmp ne i64 %6, 0
  br i1 %memptr.isvirtual, label %memptr.virtual, label %memptr.nonvirtual

memptr.virtual:                                   ; preds = %entry
  %vtable = load ptr, ptr %5, align 8
  %7 = sub i64 %memptr.ptr, 1
  %8 = getelementptr i8, ptr %vtable, i64 %7, !nosanitize !11
  %memptr.virtualfn = load ptr, ptr %8, align 8, !nosanitize !11
  br label %memptr.end

memptr.nonvirtual:                                ; preds = %entry
  %memptr.nonvirtualfn = inttoptr i64 %memptr.ptr to ptr
  br label %memptr.end

memptr.end:                                       ; preds = %memptr.nonvirtual, %memptr.virtual
  %9 = phi ptr [ %memptr.virtualfn, %memptr.virtual ], [ %memptr.nonvirtualfn, %memptr.nonvirtual ]
  %call = call noundef zeroext i1 %9(ptr noundef nonnull align 1 dereferenceable(1) %5)
  ret i1 %call
}