; Function Attrs: mustprogress uwtable
define internal noundef zeroext i1 @_ZN4absl9Condition17CastAndCallMethodIN12_GLOBAL__N_111DerivedTrueEEEbPKS0_(ptr nocapture noundef readonly %c) #3 align 2 {
entry:
  %arg_ = getelementptr inbounds i8, ptr %c, i64 24
  %0 = load ptr, ptr %arg_, align 8
  %method_pointer.sroa.0.0.copyload = load i64, ptr %c, align 8
  %method_pointer.sroa.2.0.c.sroa_idx = getelementptr inbounds i8, ptr %c, i64 8
  %method_pointer.sroa.2.0.copyload = load i64, ptr %method_pointer.sroa.2.0.c.sroa_idx, align 8
  %1 = getelementptr inbounds i8, ptr %0, i64 %method_pointer.sroa.2.0.copyload
  %2 = and i64 %method_pointer.sroa.0.0.copyload, 1
  %memptr.isvirtual.not = icmp eq i64 %2, 0
  br i1 %memptr.isvirtual.not, label %memptr.nonvirtual, label %memptr.virtual

memptr.virtual:                                   ; preds = %entry
  %vtable = load ptr, ptr %1, align 8
  %3 = getelementptr i8, ptr %vtable, i64 %method_pointer.sroa.0.0.copyload
  %4 = getelementptr i8, ptr %3, i64 -1
  %memptr.virtualfn = load ptr, ptr %4, align 8, !nosanitize !59
  br label %memptr.end

memptr.nonvirtual:                                ; preds = %entry
  %memptr.nonvirtualfn = inttoptr i64 %method_pointer.sroa.0.0.copyload to ptr
  br label %memptr.end

memptr.end:                                       ; preds = %memptr.nonvirtual, %memptr.virtual
  %5 = phi ptr [ %memptr.virtualfn, %memptr.virtual ], [ %memptr.nonvirtualfn, %memptr.nonvirtual ]
  %call = tail call noundef zeroext i1 %5(ptr noundef nonnull align 1 dereferenceable(1) %1)
  ret i1 %call
}